target datalayout = "e-m:e-p270:32:32-p271:32:32-p272:64:64-i64:64-i128:128-f80:128-n8:16:32:64-S128"
target triple = "x86_64-pc-linux-gnu"

%struct.CnvExtData = type { %struct.NewConverter, ptr, ptr, ptr, ptr, ptr, ptr, [1088 x i16], [64448 x i16], [262144 x i16], [65536 x i32], i32, i32, i32, i32, i16, i32, i32, i32, i32, i32, i32 }
%struct.NewConverter = type { ptr, ptr, ptr, ptr }

; Function Attrs: nounwind uwtable
define internal void @CnvExtClose(ptr noundef %0) #0 {
  %2 = alloca ptr, align 8
  %3 = alloca ptr, align 8
  store ptr %0, ptr %2, align 8, !tbaa !21
  call void @llvm.lifetime.start.p0(i64 8, ptr %3) #9
  %4 = load ptr, ptr %2, align 8, !tbaa !21
  store ptr %4, ptr %3, align 8, !tbaa !9
  %5 = load ptr, ptr %3, align 8, !tbaa !9
  %6 = icmp ne ptr %5, null
  br i1 %6, label %7, label %24

7:                                                ; preds = %1
  %8 = load ptr, ptr %3, align 8, !tbaa !9
  %9 = getelementptr inbounds nuw %struct.CnvExtData, ptr %8, i32 0, i32 2
  %10 = load ptr, ptr %9, align 8, !tbaa !23
  call void @utm_close(ptr noundef %10)
  %11 = load ptr, ptr %3, align 8, !tbaa !9
  %12 = getelementptr inbounds nuw %struct.CnvExtData, ptr %11, i32 0, i32 3
  %13 = load ptr, ptr %12, align 8, !tbaa !24
  call void @utm_close(ptr noundef %13)
  %14 = load ptr, ptr %3, align 8, !tbaa !9
  %15 = getelementptr inbounds nuw %struct.CnvExtData, ptr %14, i32 0, i32 4
  %16 = load ptr, ptr %15, align 8, !tbaa !25
  call void @utm_close(ptr noundef %16)
  %17 = load ptr, ptr %3, align 8, !tbaa !9
  %18 = getelementptr inbounds nuw %struct.CnvExtData, ptr %17, i32 0, i32 5
  %19 = load ptr, ptr %18, align 8, !tbaa !26
  call void @utm_close(ptr noundef %19)
  %20 = load ptr, ptr %3, align 8, !tbaa !9
  %21 = getelementptr inbounds nuw %struct.CnvExtData, ptr %20, i32 0, i32 6
  %22 = load ptr, ptr %21, align 8, !tbaa !27
  call void @utm_close(ptr noundef %22)
  %23 = load ptr, ptr %3, align 8, !tbaa !9
  call void @uprv_free_77(ptr noundef %23)
  br label %24

24:                                               ; preds = %7, %1
  call void @llvm.lifetime.end.p0(i64 8, ptr %3) #9
  ret void
}