; Function Attrs: nounwind uwtable
define internal void @CnvExtClose(ptr noundef %0) #0 {
  %.not = icmp eq ptr %0, null
  br i1 %.not, label %13, label %2

2:                                                ; preds = %1
  %3 = getelementptr inbounds nuw i8, ptr %0, i64 40
  %4 = load ptr, ptr %3, align 8, !tbaa !18
  tail call void @utm_close(ptr noundef %4) #15
  %5 = getelementptr inbounds nuw i8, ptr %0, i64 48
  %6 = load ptr, ptr %5, align 8, !tbaa !19
  tail call void @utm_close(ptr noundef %6) #15
  %7 = getelementptr inbounds nuw i8, ptr %0, i64 56
  %8 = load ptr, ptr %7, align 8, !tbaa !20
  tail call void @utm_close(ptr noundef %8) #15
  %9 = getelementptr inbounds nuw i8, ptr %0, i64 64
  %10 = load ptr, ptr %9, align 8, !tbaa !21
  tail call void @utm_close(ptr noundef %10) #15
  %11 = getelementptr inbounds nuw i8, ptr %0, i64 72
  %12 = load ptr, ptr %11, align 8, !tbaa !22
  tail call void @utm_close(ptr noundef %12) #15
  tail call void @uprv_free_77(ptr noundef nonnull %0) #15
  br label %13

13:                                               ; preds = %2, %1
  ret void
}